target datalayout = "e-m:e-p270:32:32-p271:32:32-p272:64:64-i64:64-i128:128-f80:128-n8:16:32:64-S128"
target triple = "x86_64-pc-linux-gnu"

%struct.table_t = type { i64, i64, i64, ptr }
%struct.obj_t = type { %struct.H5O_token_t, ptr, i8, i8 }
%struct.H5O_token_t = type { [16 x i8] }
%struct.find_objs_t = type { i64, ptr, ptr, ptr }

@enable_error_stack = external global i32, align 4
@H5tools_ERR_STACK_g = external global i64, align 8
@H5tools_ERR_CLS_g = external global i64, align 8
@.str.5 = private unnamed_addr constant [113 x i8] c"generated/home/dtcxzyw/WorkSpace/Projects/compilers/llvm-opt-benchmark/bench/hdf5/hdf5/tools/lib/h5tools_utils.c\00", align 1
@H5E_tools_g = external global i64, align 8
@stderr = external global ptr, align 8
@.str.7 = private unnamed_addr constant [2 x i8] c"\0A\00", align 1
@.str.12 = private unnamed_addr constant [2 x i8] c"/\00", align 1
@__func__.init_objs = private unnamed_addr constant [10 x i8] c"init_objs\00", align 1
@H5E_tools_min_id_g = external global i64, align 8
@.str.13 = private unnamed_addr constant [30 x i8] c"finding shared objects failed\00", align 1

; Function Attrs: nounwind uwtable
define void @free_table(ptr noundef %0) #0 {
  %2 = alloca ptr, align 8
  %3 = alloca i32, align 4
  store ptr %0, ptr %2, align 8
  store i32 0, ptr %3, align 4
  br label %4

4:                                                ; preds = %31, %1
  %5 = load i32, ptr %3, align 4
  %6 = zext i32 %5 to i64
  %7 = load ptr, ptr %2, align 8
  %8 = getelementptr inbounds %struct.table_t, ptr %7, i32 0, i32 2
  %9 = load i64, ptr %8, align 8
  %10 = icmp ult i64 %6, %9
  br i1 %10, label %11, label %34

11:                                               ; preds = %4
  %12 = load ptr, ptr %2, align 8
  %13 = getelementptr inbounds %struct.table_t, ptr %12, i32 0, i32 3
  %14 = load ptr, ptr %13, align 8
  %15 = load i32, ptr %3, align 4
  %16 = zext i32 %15 to i64
  %17 = getelementptr inbounds %struct.obj_t, ptr %14, i64 %16
  %18 = getelementptr inbounds %struct.obj_t, ptr %17, i32 0, i32 1
  %19 = load ptr, ptr %18, align 8
  %20 = icmp ne ptr %19, null
  br i1 %20, label %21, label %30

21:                                               ; preds = %11
  %22 = load ptr, ptr %2, align 8
  %23 = getelementptr inbounds %struct.table_t, ptr %22, i32 0, i32 3
  %24 = load ptr, ptr %23, align 8
  %25 = load i32, ptr %3, align 4
  %26 = zext i32 %25 to i64
  %27 = getelementptr inbounds %struct.obj_t, ptr %24, i64 %26
  %28 = getelementptr inbounds %struct.obj_t, ptr %27, i32 0, i32 1
  %29 = load ptr, ptr %28, align 8
  call void @free(ptr noundef %29) #12
  br label %30

30:                                               ; preds = %21, %11
  br label %31

31:                                               ; preds = %30
  %32 = load i32, ptr %3, align 4
  %33 = add i32 %32, 1
  store i32 %33, ptr %3, align 4
  br label %4

34:                                               ; preds = %4
  %35 = load ptr, ptr %2, align 8
  %36 = getelementptr inbounds %struct.table_t, ptr %35, i32 0, i32 3
  %37 = load ptr, ptr %36, align 8
  call void @free(ptr noundef %37) #12
  %38 = load ptr, ptr %2, align 8
  call void @free(ptr noundef %38) #12
  ret void
}

; Function Attrs: nounwind uwtable
define internal void @init_table(i64 noundef %0, ptr noundef %1) #0 {
  %3 = alloca i64, align 8
  %4 = alloca ptr, align 8
  %5 = alloca ptr, align 8
  store i64 %0, ptr %3, align 8
  store ptr %1, ptr %4, align 8
  %6 = call noalias ptr @malloc(i64 noundef 32) #16
  store ptr %6, ptr %5, align 8
  %7 = load i64, ptr %3, align 8
  %8 = load ptr, ptr %5, align 8
  %9 = getelementptr inbounds %struct.table_t, ptr %8, i32 0, i32 0
  store i64 %7, ptr %9, align 8
  %10 = load ptr, ptr %5, align 8
  %11 = getelementptr inbounds %struct.table_t, ptr %10, i32 0, i32 1
  store i64 20, ptr %11, align 8
  %12 = load ptr, ptr %5, align 8
  %13 = getelementptr inbounds %struct.table_t, ptr %12, i32 0, i32 2
  store i64 0, ptr %13, align 8
  %14 = load ptr, ptr %5, align 8
  %15 = getelementptr inbounds %struct.table_t, ptr %14, i32 0, i32 1
  %16 = load i64, ptr %15, align 8
  %17 = mul i64 %16, 32
  %18 = call noalias ptr @malloc(i64 noundef %17) #16
  %19 = load ptr, ptr %5, align 8
  %20 = getelementptr inbounds %struct.table_t, ptr %19, i32 0, i32 3
  store ptr %18, ptr %20, align 8
  %21 = load ptr, ptr %5, align 8
  %22 = load ptr, ptr %4, align 8
  store ptr %21, ptr %22, align 8
  ret void
}

; Function Attrs: nounwind uwtable
define i32 @init_objs(i64 noundef %0, ptr noundef %1, ptr noundef %2, ptr noundef %3, ptr noundef %4) #0 {
  %6 = alloca i64, align 8
  %7 = alloca ptr, align 8
  %8 = alloca ptr, align 8
  %9 = alloca ptr, align 8
  %10 = alloca ptr, align 8
  %11 = alloca i32, align 4
  store i64 %0, ptr %6, align 8
  store ptr %1, ptr %7, align 8
  store ptr %2, ptr %8, align 8
  store ptr %3, ptr %9, align 8
  store ptr %4, ptr %10, align 8
  store i32 0, ptr %11, align 4
  %12 = load i64, ptr %6, align 8
  %13 = load ptr, ptr %8, align 8
  call void @init_table(i64 noundef %12, ptr noundef %13)
  %14 = load i64, ptr %6, align 8
  %15 = load ptr, ptr %9, align 8
  call void @init_table(i64 noundef %14, ptr noundef %15)
  %16 = load i64, ptr %6, align 8
  %17 = load ptr, ptr %10, align 8
  call void @init_table(i64 noundef %16, ptr noundef %17)
  %18 = load i64, ptr %6, align 8
  %19 = load ptr, ptr %7, align 8
  %20 = getelementptr inbounds %struct.find_objs_t, ptr %19, i32 0, i32 0
  store i64 %18, ptr %20, align 8
  %21 = load ptr, ptr %8, align 8
  %22 = load ptr, ptr %21, align 8
  %23 = load ptr, ptr %7, align 8
  %24 = getelementptr inbounds %struct.find_objs_t, ptr %23, i32 0, i32 1
  store ptr %22, ptr %24, align 8
  %25 = load ptr, ptr %10, align 8
  %26 = load ptr, ptr %25, align 8
  %27 = load ptr, ptr %7, align 8
  %28 = getelementptr inbounds %struct.find_objs_t, ptr %27, i32 0, i32 2
  store ptr %26, ptr %28, align 8
  %29 = load ptr, ptr %9, align 8
  %30 = load ptr, ptr %29, align 8
  %31 = load ptr, ptr %7, align 8
  %32 = getelementptr inbounds %struct.find_objs_t, ptr %31, i32 0, i32 3
  store ptr %30, ptr %32, align 8
  %33 = load i64, ptr %6, align 8
  %34 = load ptr, ptr %7, align 8
  %35 = call i32 @h5trav_visit(i64 noundef %33, ptr noundef @.str.12, i1 noundef zeroext true, i1 noundef zeroext true, ptr noundef @find_objs_cb, ptr noundef null, ptr noundef %34, i32 noundef 1)
  store i32 %35, ptr %11, align 4
  %36 = icmp slt i32 %35, 0
  br i1 %36, label %37, label %65

37:                                               ; preds = %5
  br label %38

38:                                               ; preds = %37
  br label %39

39:                                               ; preds = %38
  %40 = load i32, ptr @enable_error_stack, align 4
  %41 = icmp sgt i32 %40, 0
  br i1 %41, label %42, label %60

42:                                               ; preds = %39
  %43 = load i64, ptr @H5tools_ERR_STACK_g, align 8
  %44 = icmp sge i64 %43, 0
  br i1 %44, label %45, label %54

45:                                               ; preds = %42
  %46 = load i64, ptr @H5tools_ERR_CLS_g, align 8
  %47 = icmp sge i64 %46, 0
  br i1 %47, label %48, label %54

48:                                               ; preds = %45
  %49 = load i64, ptr @H5tools_ERR_STACK_g, align 8
  %50 = load i64, ptr @H5tools_ERR_CLS_g, align 8
  %51 = load i64, ptr @H5E_tools_g, align 8
  %52 = load i64, ptr @H5E_tools_min_id_g, align 8
  %53 = call i32 (i64, ptr, ptr, i32, i64, i64, i64, ptr, ...) @H5Epush2(i64 noundef %49, ptr noundef @.str.5, ptr noundef @__func__.init_objs, i32 noundef 748, i64 noundef %50, i64 noundef %51, i64 noundef %52, ptr noundef @.str.13)
  br label %59

54:                                               ; preds = %45, %42
  %55 = load ptr, ptr @stderr, align 8
  %56 = call i32 (ptr, ptr, ...) @fprintf(ptr noundef %55, ptr noundef @.str.13) #12
  %57 = load ptr, ptr @stderr, align 8
  %58 = call i32 (ptr, ptr, ...) @fprintf(ptr noundef %57, ptr noundef @.str.7) #12
  br label %59

59:                                               ; preds = %54, %48
  br label %60

60:                                               ; preds = %59, %39
  br label %61

61:                                               ; preds = %60
  br label %62

62:                                               ; preds = %61
  store i32 -1, ptr %11, align 4
  br label %66

63:                                               ; No predecessors!
  br label %64

64:                                               ; preds = %63
  br label %65

65:                                               ; preds = %64, %5
  br label %66

66:                                               ; preds = %65, %62
  %67 = load i32, ptr %11, align 4
  %68 = icmp slt i32 %67, 0
  br i1 %68, label %69, label %82

69:                                               ; preds = %66
  %70 = load ptr, ptr %8, align 8
  %71 = load ptr, ptr %70, align 8
  call void @free_table(ptr noundef %71)
  %72 = load ptr, ptr %7, align 8
  %73 = getelementptr inbounds %struct.find_objs_t, ptr %72, i32 0, i32 1
  store ptr null, ptr %73, align 8
  %74 = load ptr, ptr %10, align 8
  %75 = load ptr, ptr %74, align 8
  call void @free_table(ptr noundef %75)
  %76 = load ptr, ptr %7, align 8
  %77 = getelementptr inbounds %struct.find_objs_t, ptr %76, i32 0, i32 2
  store ptr null, ptr %77, align 8
  %78 = load ptr, ptr %9, align 8
  %79 = load ptr, ptr %78, align 8
  call void @free_table(ptr noundef %79)
  %80 = load ptr, ptr %7, align 8
  %81 = getelementptr inbounds %struct.find_objs_t, ptr %80, i32 0, i32 3
  store ptr null, ptr %81, align 8
  br label %82

82:                                               ; preds = %69, %66
  %83 = load i32, ptr %11, align 4
  ret i32 %83
}