; Function Attrs: nounwind uwtable
define range(i32 -1, -2147483648) i32 @init_objs(i64 noundef %0, ptr noundef initializes((0, 32)) %1, ptr noundef captures(none) initializes((0, 8)) %2, ptr noundef captures(none) initializes((0, 8)) %3, ptr noundef captures(none) initializes((0, 8)) %4) local_unnamed_addr #4 {
  %6 = tail call noalias dereferenceable_or_null(32) ptr @malloc(i64 noundef 32) #28
  store i64 %0, ptr %6, align 8
  %7 = getelementptr inbounds nuw i8, ptr %6, i64 8
  store i64 20, ptr %7, align 8
  %8 = getelementptr inbounds nuw i8, ptr %6, i64 16
  store i64 0, ptr %8, align 8
  %9 = tail call noalias dereferenceable_or_null(640) ptr @malloc(i64 noundef 640) #28
  %10 = getelementptr inbounds nuw i8, ptr %6, i64 24
  store ptr %9, ptr %10, align 8
  store ptr %6, ptr %2, align 8
  %11 = tail call noalias dereferenceable_or_null(32) ptr @malloc(i64 noundef 32) #28
  store i64 %0, ptr %11, align 8
  %12 = getelementptr inbounds nuw i8, ptr %11, i64 8
  store i64 20, ptr %12, align 8
  %13 = getelementptr inbounds nuw i8, ptr %11, i64 16
  store i64 0, ptr %13, align 8
  %14 = tail call noalias dereferenceable_or_null(640) ptr @malloc(i64 noundef 640) #28
  %15 = getelementptr inbounds nuw i8, ptr %11, i64 24
  store ptr %14, ptr %15, align 8
  store ptr %11, ptr %3, align 8
  %16 = tail call noalias dereferenceable_or_null(32) ptr @malloc(i64 noundef 32) #28
  store i64 %0, ptr %16, align 8
  %17 = getelementptr inbounds nuw i8, ptr %16, i64 8
  store i64 20, ptr %17, align 8
  %18 = getelementptr inbounds nuw i8, ptr %16, i64 16
  store i64 0, ptr %18, align 8
  %19 = tail call noalias dereferenceable_or_null(640) ptr @malloc(i64 noundef 640) #28
  %20 = getelementptr inbounds nuw i8, ptr %16, i64 24
  store ptr %19, ptr %20, align 8
  store ptr %16, ptr %4, align 8
  store i64 %0, ptr %1, align 8
  %21 = load ptr, ptr %2, align 8
  %22 = getelementptr inbounds nuw i8, ptr %1, i64 8
  store ptr %21, ptr %22, align 8
  %23 = load ptr, ptr %4, align 8
  %24 = getelementptr inbounds nuw i8, ptr %1, i64 16
  store ptr %23, ptr %24, align 8
  %25 = load ptr, ptr %3, align 8
  %26 = getelementptr inbounds nuw i8, ptr %1, i64 24
  store ptr %25, ptr %26, align 8
  %27 = tail call i32 @h5trav_visit(i64 noundef %0, ptr noundef nonnull @.str.12, i1 noundef zeroext true, i1 noundef zeroext true, ptr noundef nonnull @find_objs_cb, ptr noundef null, ptr noundef nonnull %1, i32 noundef 1) #23
  %28 = icmp slt i32 %27, 0
  br i1 %28, label %29, label %100

29:                                               ; preds = %5
  %30 = load i32, ptr @enable_error_stack, align 4
  %31 = icmp sgt i32 %30, 0
  br i1 %31, label %32, label %45

32:                                               ; preds = %29
  %33 = load i64, ptr @H5tools_ERR_STACK_g, align 8
  %34 = icmp sgt i64 %33, -1
  %35 = load i64, ptr @H5tools_ERR_CLS_g, align 8
  %36 = icmp sgt i64 %35, -1
  %or.cond = select i1 %34, i1 %36, i1 false
  br i1 %or.cond, label %37, label %41

37:                                               ; preds = %32
  %38 = load i64, ptr @H5E_tools_g, align 8
  %39 = load i64, ptr @H5E_tools_min_id_g, align 8
  %40 = tail call i32 (i64, ptr, ptr, i32, i64, i64, i64, ptr, ...) @H5Epush2(i64 noundef %33, ptr noundef nonnull @.str.5, ptr noundef nonnull @__func__.init_objs, i32 noundef 748, i64 noundef %35, i64 noundef %38, i64 noundef %39, ptr noundef nonnull @.str.13) #23
  br label %45

41:                                               ; preds = %32
  %42 = load ptr, ptr @stderr, align 8
  %43 = tail call i64 @fwrite(ptr nonnull @.str.13, i64 29, i64 1, ptr %42) #26
  %44 = load ptr, ptr @stderr, align 8
  %fputc = tail call i32 @fputc(i32 10, ptr %44)
  br label %45

45:                                               ; preds = %37, %41, %29
  %46 = load ptr, ptr %2, align 8
  %47 = getelementptr inbounds nuw i8, ptr %46, i64 16
  %48 = load i64, ptr %47, align 8
  %.not11.i = icmp eq i64 %48, 0
  br i1 %.not11.i, label %free_table.exit, label %.lr.ph.i

.lr.ph.i:                                         ; preds = %45
  %49 = getelementptr inbounds nuw i8, ptr %46, i64 24
  br label %50

50:                                               ; preds = %57, %.lr.ph.i
  %51 = phi i64 [ %48, %.lr.ph.i ], [ %58, %57 ]
  %52 = phi i64 [ 0, %.lr.ph.i ], [ %60, %57 ]
  %.010.i = phi i32 [ 0, %.lr.ph.i ], [ %59, %57 ]
  %53 = load ptr, ptr %49, align 8
  %54 = getelementptr inbounds nuw %struct.obj_t, ptr %53, i64 %52, i32 1
  %55 = load ptr, ptr %54, align 8
  %.not.i = icmp eq ptr %55, null
  br i1 %.not.i, label %57, label %56

56:                                               ; preds = %50
  tail call void @free(ptr noundef nonnull %55) #23
  %.pre.i = load i64, ptr %47, align 8
  br label %57

57:                                               ; preds = %56, %50
  %58 = phi i64 [ %51, %50 ], [ %.pre.i, %56 ]
  %59 = add i32 %.010.i, 1
  %60 = zext i32 %59 to i64
  %61 = icmp ugt i64 %58, %60
  br i1 %61, label %50, label %free_table.exit

free_table.exit:                                  ; preds = %57, %45
  %62 = getelementptr inbounds nuw i8, ptr %46, i64 24
  %63 = load ptr, ptr %62, align 8
  tail call void @free(ptr noundef %63) #23
  tail call void @free(ptr noundef nonnull %46) #23
  store ptr null, ptr %22, align 8
  %64 = load ptr, ptr %4, align 8
  %65 = getelementptr inbounds nuw i8, ptr %64, i64 16
  %66 = load i64, ptr %65, align 8
  %.not11.i27 = icmp eq i64 %66, 0
  br i1 %.not11.i27, label %free_table.exit32, label %.lr.ph.i28

.lr.ph.i28:                                       ; preds = %free_table.exit
  %67 = getelementptr inbounds nuw i8, ptr %64, i64 24
  br label %68

68:                                               ; preds = %75, %.lr.ph.i28
  %69 = phi i64 [ %66, %.lr.ph.i28 ], [ %76, %75 ]
  %70 = phi i64 [ 0, %.lr.ph.i28 ], [ %78, %75 ]
  %.010.i29 = phi i32 [ 0, %.lr.ph.i28 ], [ %77, %75 ]
  %71 = load ptr, ptr %67, align 8
  %72 = getelementptr inbounds nuw %struct.obj_t, ptr %71, i64 %70, i32 1
  %73 = load ptr, ptr %72, align 8
  %.not.i30 = icmp eq ptr %73, null
  br i1 %.not.i30, label %75, label %74

74:                                               ; preds = %68
  tail call void @free(ptr noundef nonnull %73) #23
  %.pre.i31 = load i64, ptr %65, align 8
  br label %75

75:                                               ; preds = %74, %68
  %76 = phi i64 [ %69, %68 ], [ %.pre.i31, %74 ]
  %77 = add i32 %.010.i29, 1
  %78 = zext i32 %77 to i64
  %79 = icmp ugt i64 %76, %78
  br i1 %79, label %68, label %free_table.exit32

free_table.exit32:                                ; preds = %75, %free_table.exit
  %80 = getelementptr inbounds nuw i8, ptr %64, i64 24
  %81 = load ptr, ptr %80, align 8
  tail call void @free(ptr noundef %81) #23
  tail call void @free(ptr noundef nonnull %64) #23
  store ptr null, ptr %24, align 8
  %82 = load ptr, ptr %3, align 8
  %83 = getelementptr inbounds nuw i8, ptr %82, i64 16
  %84 = load i64, ptr %83, align 8
  %.not11.i33 = icmp eq i64 %84, 0
  br i1 %.not11.i33, label %free_table.exit38, label %.lr.ph.i34

.lr.ph.i34:                                       ; preds = %free_table.exit32
  %85 = getelementptr inbounds nuw i8, ptr %82, i64 24
  br label %86

86:                                               ; preds = %93, %.lr.ph.i34
  %87 = phi i64 [ %84, %.lr.ph.i34 ], [ %94, %93 ]
  %88 = phi i64 [ 0, %.lr.ph.i34 ], [ %96, %93 ]
  %.010.i35 = phi i32 [ 0, %.lr.ph.i34 ], [ %95, %93 ]
  %89 = load ptr, ptr %85, align 8
  %90 = getelementptr inbounds nuw %struct.obj_t, ptr %89, i64 %88, i32 1
  %91 = load ptr, ptr %90, align 8
  %.not.i36 = icmp eq ptr %91, null
  br i1 %.not.i36, label %93, label %92

92:                                               ; preds = %86
  tail call void @free(ptr noundef nonnull %91) #23
  %.pre.i37 = load i64, ptr %83, align 8
  br label %93

93:                                               ; preds = %92, %86
  %94 = phi i64 [ %87, %86 ], [ %.pre.i37, %92 ]
  %95 = add i32 %.010.i35, 1
  %96 = zext i32 %95 to i64
  %97 = icmp ugt i64 %94, %96
  br i1 %97, label %86, label %free_table.exit38

free_table.exit38:                                ; preds = %93, %free_table.exit32
  %98 = getelementptr inbounds nuw i8, ptr %82, i64 24
  %99 = load ptr, ptr %98, align 8
  tail call void @free(ptr noundef %99) #23
  tail call void @free(ptr noundef nonnull %82) #23
  store ptr null, ptr %26, align 8
  br label %100

100:                                              ; preds = %5, %free_table.exit38
  %.040 = phi i32 [ -1, %free_table.exit38 ], [ %27, %5 ]
  ret i32 %.040
}